
mmu.o:     file format elf32-i386


Disassembly of section .text:

00000000 <mmu_inicializar>:
   0:	55                   	push   ebp
   1:	89 e5                	mov    ebp,esp
   3:	83 ec 08             	sub    esp,0x8
   6:	e8 fc ff ff ff       	call   7 <mmu_inicializar+0x7>
   b:	c9                   	leave  
   c:	c3                   	ret    

0000000d <mmu_inicializar_dir_kernel>:
   d:	55                   	push   ebp
   e:	89 e5                	mov    ebp,esp
  10:	83 ec 38             	sub    esp,0x38
  13:	c7 45 f4 00 00 00 00 	mov    DWORD PTR [ebp-0xc],0x0
  1a:	eb 19                	jmp    35 <mmu_inicializar_dir_kernel+0x28>
  1c:	a1 00 00 00 00       	mov    eax,ds:0x0
  21:	8b 55 f4             	mov    edx,DWORD PTR [ebp-0xc]
  24:	c1 e2 02             	shl    edx,0x2
  27:	01 d0                	add    eax,edx
  29:	0f b6 10             	movzx  edx,BYTE PTR [eax]
  2c:	83 e2 fe             	and    edx,0xfffffffe
  2f:	88 10                	mov    BYTE PTR [eax],dl
  31:	83 45 f4 01          	add    DWORD PTR [ebp-0xc],0x1
  35:	81 7d f4 ff 03 00 00 	cmp    DWORD PTR [ebp-0xc],0x3ff
  3c:	76 de                	jbe    1c <mmu_inicializar_dir_kernel+0xf>
  3e:	c7 45 f0 00 80 02 00 	mov    DWORD PTR [ebp-0x10],0x28000
  45:	c7 45 f4 00 00 00 00 	mov    DWORD PTR [ebp-0xc],0x0
  4c:	eb 3c                	jmp    8a <mmu_inicializar_dir_kernel+0x7d>
  4e:	8b 45 f0             	mov    eax,DWORD PTR [ebp-0x10]
  51:	c1 f8 0c             	sar    eax,0xc
  54:	89 c2                	mov    edx,eax
  56:	a1 00 00 00 00       	mov    eax,ds:0x0
  5b:	c7 44 24 14 00 00 00 	mov    DWORD PTR [esp+0x14],0x0
  62:	00 
  63:	c7 44 24 10 01 00 00 	mov    DWORD PTR [esp+0x10],0x1
  6a:	00 
  6b:	89 54 24 0c          	mov    DWORD PTR [esp+0xc],edx
  6f:	c7 44 24 08 01 00 00 	mov    DWORD PTR [esp+0x8],0x1
  76:	00 
  77:	8b 55 f4             	mov    edx,DWORD PTR [ebp-0xc]
  7a:	89 54 24 04          	mov    DWORD PTR [esp+0x4],edx
  7e:	89 04 24             	mov    DWORD PTR [esp],eax
  81:	e8 fc ff ff ff       	call   82 <mmu_inicializar_dir_kernel+0x75>
  86:	83 45 f4 01          	add    DWORD PTR [ebp-0xc],0x1
  8a:	83 7d f4 00          	cmp    DWORD PTR [ebp-0xc],0x0
  8e:	74 be                	je     4e <mmu_inicializar_dir_kernel+0x41>
  90:	c7 45 f4 00 00 00 00 	mov    DWORD PTR [ebp-0xc],0x0
  97:	eb 35                	jmp    ce <mmu_inicializar_dir_kernel+0xc1>
  99:	c7 44 24 14 00 00 00 	mov    DWORD PTR [esp+0x14],0x0
  a0:	00 
  a1:	c7 44 24 10 01 00 00 	mov    DWORD PTR [esp+0x10],0x1
  a8:	00 
  a9:	8b 45 f4             	mov    eax,DWORD PTR [ebp-0xc]
  ac:	89 44 24 0c          	mov    DWORD PTR [esp+0xc],eax
  b0:	c7 44 24 08 01 00 00 	mov    DWORD PTR [esp+0x8],0x1
  b7:	00 
  b8:	8b 45 f4             	mov    eax,DWORD PTR [ebp-0xc]
  bb:	89 44 24 04          	mov    DWORD PTR [esp+0x4],eax
  bf:	8b 45 f0             	mov    eax,DWORD PTR [ebp-0x10]
  c2:	89 04 24             	mov    DWORD PTR [esp],eax
  c5:	e8 fc ff ff ff       	call   c6 <mmu_inicializar_dir_kernel+0xb9>
  ca:	83 45 f4 01          	add    DWORD PTR [ebp-0xc],0x1
  ce:	81 7d f4 ff 03 00 00 	cmp    DWORD PTR [ebp-0xc],0x3ff
  d5:	76 c2                	jbe    99 <mmu_inicializar_dir_kernel+0x8c>
  d7:	c9                   	leave  
  d8:	c3                   	ret    

000000d9 <mmu_inicializar_dir_zombie>:
  d9:	55                   	push   ebp
  da:	89 e5                	mov    ebp,esp
  dc:	83 ec 38             	sub    esp,0x38
  df:	e8 fc ff ff ff       	call   e0 <mmu_inicializar_dir_zombie+0x7>
  e4:	89 45 f0             	mov    DWORD PTR [ebp-0x10],eax
  e7:	8b 45 f0             	mov    eax,DWORD PTR [ebp-0x10]
  ea:	89 45 ec             	mov    DWORD PTR [ebp-0x14],eax
  ed:	c7 45 f4 00 00 00 00 	mov    DWORD PTR [ebp-0xc],0x0
  f4:	eb 15                	jmp    10b <mmu_inicializar_dir_zombie+0x32>
  f6:	8b 45 f4             	mov    eax,DWORD PTR [ebp-0xc]
  f9:	c1 e0 02             	shl    eax,0x2
  fc:	03 45 f0             	add    eax,DWORD PTR [ebp-0x10]
  ff:	0f b6 10             	movzx  edx,BYTE PTR [eax]
 102:	83 e2 fe             	and    edx,0xfffffffe
 105:	88 10                	mov    BYTE PTR [eax],dl
 107:	83 45 f4 01          	add    DWORD PTR [ebp-0xc],0x1
 10b:	81 7d f4 ff 03 00 00 	cmp    DWORD PTR [ebp-0xc],0x3ff
 112:	76 e2                	jbe    f6 <mmu_inicializar_dir_zombie+0x1d>
 114:	e8 fc ff ff ff       	call   115 <mmu_inicializar_dir_zombie+0x3c>
 119:	89 45 e8             	mov    DWORD PTR [ebp-0x18],eax
 11c:	c7 45 f4 00 00 00 00 	mov    DWORD PTR [ebp-0xc],0x0
 123:	eb 38                	jmp    15d <mmu_inicializar_dir_zombie+0x84>
 125:	8b 45 e8             	mov    eax,DWORD PTR [ebp-0x18]
 128:	c1 f8 0c             	sar    eax,0xc
 12b:	c7 44 24 14 00 00 00 	mov    DWORD PTR [esp+0x14],0x0
 132:	00 
 133:	c7 44 24 10 01 00 00 	mov    DWORD PTR [esp+0x10],0x1
 13a:	00 
 13b:	89 44 24 0c          	mov    DWORD PTR [esp+0xc],eax
 13f:	c7 44 24 08 01 00 00 	mov    DWORD PTR [esp+0x8],0x1
 146:	00 
 147:	8b 45 f4             	mov    eax,DWORD PTR [ebp-0xc]
 14a:	89 44 24 04          	mov    DWORD PTR [esp+0x4],eax
 14e:	8b 45 f0             	mov    eax,DWORD PTR [ebp-0x10]
 151:	89 04 24             	mov    DWORD PTR [esp],eax
 154:	e8 fc ff ff ff       	call   155 <mmu_inicializar_dir_zombie+0x7c>
 159:	83 45 f4 01          	add    DWORD PTR [ebp-0xc],0x1
 15d:	83 7d f4 00          	cmp    DWORD PTR [ebp-0xc],0x0
 161:	74 c2                	je     125 <mmu_inicializar_dir_zombie+0x4c>
 163:	c7 45 f4 00 00 00 00 	mov    DWORD PTR [ebp-0xc],0x0
 16a:	eb 35                	jmp    1a1 <mmu_inicializar_dir_zombie+0xc8>
 16c:	c7 44 24 14 00 00 00 	mov    DWORD PTR [esp+0x14],0x0
 173:	00 
 174:	c7 44 24 10 01 00 00 	mov    DWORD PTR [esp+0x10],0x1
 17b:	00 
 17c:	8b 45 f4             	mov    eax,DWORD PTR [ebp-0xc]
 17f:	89 44 24 0c          	mov    DWORD PTR [esp+0xc],eax
 183:	c7 44 24 08 01 00 00 	mov    DWORD PTR [esp+0x8],0x1
 18a:	00 
 18b:	8b 45 f4             	mov    eax,DWORD PTR [ebp-0xc]
 18e:	89 44 24 04          	mov    DWORD PTR [esp+0x4],eax
 192:	8b 45 e8             	mov    eax,DWORD PTR [ebp-0x18]
 195:	89 04 24             	mov    DWORD PTR [esp],eax
 198:	e8 fc ff ff ff       	call   199 <mmu_inicializar_dir_zombie+0xc0>
 19d:	83 45 f4 01          	add    DWORD PTR [ebp-0xc],0x1
 1a1:	81 7d f4 ff 03 00 00 	cmp    DWORD PTR [ebp-0xc],0x3ff
 1a8:	76 c2                	jbe    16c <mmu_inicializar_dir_zombie+0x93>
 1aa:	8b 45 ec             	mov    eax,DWORD PTR [ebp-0x14]
 1ad:	c9                   	leave  
 1ae:	c3                   	ret    

000001af <mmu_mappear_pagina>:
 1af:	55                   	push   ebp
 1b0:	89 e5                	mov    ebp,esp
 1b2:	53                   	push   ebx
 1b3:	83 ec 34             	sub    esp,0x34
 1b6:	8b 45 14             	mov    eax,DWORD PTR [ebp+0x14]
 1b9:	88 45 d4             	mov    BYTE PTR [ebp-0x2c],al
 1bc:	8b 45 0c             	mov    eax,DWORD PTR [ebp+0xc]
 1bf:	c1 e8 0c             	shr    eax,0xc
 1c2:	89 45 f4             	mov    DWORD PTR [ebp-0xc],eax
 1c5:	c1 65 f4 0c          	shl    DWORD PTR [ebp-0xc],0xc
 1c9:	8b 45 f4             	mov    eax,DWORD PTR [ebp-0xc]
 1cc:	89 45 f0             	mov    DWORD PTR [ebp-0x10],eax
 1cf:	8b 45 08             	mov    eax,DWORD PTR [ebp+0x8]
 1d2:	c1 e8 16             	shr    eax,0x16
 1d5:	89 45 ec             	mov    DWORD PTR [ebp-0x14],eax
 1d8:	8b 45 ec             	mov    eax,DWORD PTR [ebp-0x14]
 1db:	c1 e0 02             	shl    eax,0x2
 1de:	01 45 f0             	add    DWORD PTR [ebp-0x10],eax
 1e1:	8b 45 f0             	mov    eax,DWORD PTR [ebp-0x10]
 1e4:	0f b6 00             	movzx  eax,BYTE PTR [eax]
 1e7:	83 e0 01             	and    eax,0x1
 1ea:	84 c0                	test   al,al
 1ec:	0f 85 d6 00 00 00    	jne    2c8 <mmu_mappear_pagina+0x119>
 1f2:	8b 45 f0             	mov    eax,DWORD PTR [ebp-0x10]
 1f5:	0f b6 10             	movzx  edx,BYTE PTR [eax]
 1f8:	83 ca 01             	or     edx,0x1
 1fb:	88 10                	mov    BYTE PTR [eax],dl
 1fd:	8b 45 f0             	mov    eax,DWORD PTR [ebp-0x10]
 200:	0f b6 10             	movzx  edx,BYTE PTR [eax]
 203:	83 ca 02             	or     edx,0x2
 206:	88 10                	mov    BYTE PTR [eax],dl
 208:	0f b6 45 d4          	movzx  eax,BYTE PTR [ebp-0x2c]
 20c:	89 c2                	mov    edx,eax
 20e:	83 e2 01             	and    edx,0x1
 211:	8b 45 f0             	mov    eax,DWORD PTR [ebp-0x10]
 214:	83 e2 01             	and    edx,0x1
 217:	8d 0c 95 00 00 00 00 	lea    ecx,[edx*4+0x0]
 21e:	0f b6 10             	movzx  edx,BYTE PTR [eax]
 221:	83 e2 fb             	and    edx,0xfffffffb
 224:	09 ca                	or     edx,ecx
 226:	88 10                	mov    BYTE PTR [eax],dl
 228:	8b 45 f0             	mov    eax,DWORD PTR [ebp-0x10]
 22b:	0f b6 10             	movzx  edx,BYTE PTR [eax]
 22e:	83 e2 f7             	and    edx,0xfffffff7
 231:	88 10                	mov    BYTE PTR [eax],dl
 233:	8b 45 f0             	mov    eax,DWORD PTR [ebp-0x10]
 236:	0f b6 10             	movzx  edx,BYTE PTR [eax]
 239:	83 e2 ef             	and    edx,0xffffffef
 23c:	88 10                	mov    BYTE PTR [eax],dl
 23e:	8b 45 f0             	mov    eax,DWORD PTR [ebp-0x10]
 241:	0f b6 10             	movzx  edx,BYTE PTR [eax]
 244:	83 e2 df             	and    edx,0xffffffdf
 247:	88 10                	mov    BYTE PTR [eax],dl
 249:	8b 45 f0             	mov    eax,DWORD PTR [ebp-0x10]
 24c:	0f b6 10             	movzx  edx,BYTE PTR [eax]
 24f:	83 e2 bf             	and    edx,0xffffffbf
 252:	88 10                	mov    BYTE PTR [eax],dl
 254:	8b 45 f0             	mov    eax,DWORD PTR [ebp-0x10]
 257:	0f b6 10             	movzx  edx,BYTE PTR [eax]
 25a:	83 e2 7f             	and    edx,0x7f
 25d:	88 10                	mov    BYTE PTR [eax],dl
 25f:	8b 45 f0             	mov    eax,DWORD PTR [ebp-0x10]
 262:	0f b6 50 01          	movzx  edx,BYTE PTR [eax+0x1]
 266:	83 e2 fe             	and    edx,0xfffffffe
 269:	88 50 01             	mov    BYTE PTR [eax+0x1],dl
 26c:	8b 45 f0             	mov    eax,DWORD PTR [ebp-0x10]
 26f:	0f b6 50 01          	movzx  edx,BYTE PTR [eax+0x1]
 273:	83 e2 f1             	and    edx,0xfffffff1
 276:	88 50 01             	mov    BYTE PTR [eax+0x1],dl
 279:	e8 fc ff ff ff       	call   27a <mmu_mappear_pagina+0xcb>
 27e:	c1 f8 0c             	sar    eax,0xc
 281:	89 c2                	mov    edx,eax
 283:	81 e2 ff ff 0f 00    	and    edx,0xfffff
 289:	8b 45 f0             	mov    eax,DWORD PTR [ebp-0x10]
 28c:	89 d1                	mov    ecx,edx
 28e:	83 e1 0f             	and    ecx,0xf
 291:	89 cb                	mov    ebx,ecx
 293:	c1 e3 04             	shl    ebx,0x4
 296:	0f b6 48 01          	movzx  ecx,BYTE PTR [eax+0x1]
 29a:	83 e1 0f             	and    ecx,0xf
 29d:	09 d9                	or     ecx,ebx
 29f:	88 48 01             	mov    BYTE PTR [eax+0x1],cl
 2a2:	89 d1                	mov    ecx,edx
 2a4:	c1 e9 04             	shr    ecx,0x4
 2a7:	0f b6 d9             	movzx  ebx,cl
 2aa:	0f b6 48 02          	movzx  ecx,BYTE PTR [eax+0x2]
 2ae:	83 e1 00             	and    ecx,0x0
 2b1:	09 d9                	or     ecx,ebx
 2b3:	88 48 02             	mov    BYTE PTR [eax+0x2],cl
 2b6:	c1 ea 0c             	shr    edx,0xc
 2b9:	0f b6 ca             	movzx  ecx,dl
 2bc:	0f b6 50 03          	movzx  edx,BYTE PTR [eax+0x3]
 2c0:	83 e2 00             	and    edx,0x0
 2c3:	09 ca                	or     edx,ecx
 2c5:	88 50 03             	mov    BYTE PTR [eax+0x3],dl
 2c8:	8b 45 f0             	mov    eax,DWORD PTR [ebp-0x10]
 2cb:	0f b6 50 01          	movzx  edx,BYTE PTR [eax+0x1]
 2cf:	c0 ea 04             	shr    dl,0x4
 2d2:	0f b6 d2             	movzx  edx,dl
 2d5:	0f b6 48 02          	movzx  ecx,BYTE PTR [eax+0x2]
 2d9:	c1 e1 04             	shl    ecx,0x4
 2dc:	09 ca                	or     edx,ecx
 2de:	0f b6 40 03          	movzx  eax,BYTE PTR [eax+0x3]
 2e2:	c1 e0 0c             	shl    eax,0xc
 2e5:	09 d0                	or     eax,edx
 2e7:	c1 e0 0c             	shl    eax,0xc
 2ea:	89 45 e8             	mov    DWORD PTR [ebp-0x18],eax
 2ed:	8b 45 e8             	mov    eax,DWORD PTR [ebp-0x18]
 2f0:	89 45 e4             	mov    DWORD PTR [ebp-0x1c],eax
 2f3:	8b 45 08             	mov    eax,DWORD PTR [ebp+0x8]
 2f6:	c1 e0 0a             	shl    eax,0xa
 2f9:	89 45 e0             	mov    DWORD PTR [ebp-0x20],eax
 2fc:	c1 6d e0 16          	shr    DWORD PTR [ebp-0x20],0x16
 300:	8b 45 e0             	mov    eax,DWORD PTR [ebp-0x20]
 303:	c1 e0 02             	shl    eax,0x2
 306:	01 45 e4             	add    DWORD PTR [ebp-0x1c],eax
 309:	8b 45 e4             	mov    eax,DWORD PTR [ebp-0x1c]
 30c:	0f b6 10             	movzx  edx,BYTE PTR [eax]
 30f:	83 ca 01             	or     edx,0x1
 312:	88 10                	mov    BYTE PTR [eax],dl
 314:	8b 45 e4             	mov    eax,DWORD PTR [ebp-0x1c]
 317:	0f b6 10             	movzx  edx,BYTE PTR [eax]
 31a:	83 ca 02             	or     edx,0x2
 31d:	88 10                	mov    BYTE PTR [eax],dl
 31f:	0f b6 45 d4          	movzx  eax,BYTE PTR [ebp-0x2c]
 323:	89 c2                	mov    edx,eax
 325:	83 e2 01             	and    edx,0x1
 328:	8b 45 e4             	mov    eax,DWORD PTR [ebp-0x1c]
 32b:	83 e2 01             	and    edx,0x1
 32e:	8d 0c 95 00 00 00 00 	lea    ecx,[edx*4+0x0]
 335:	0f b6 10             	movzx  edx,BYTE PTR [eax]
 338:	83 e2 fb             	and    edx,0xfffffffb
 33b:	09 ca                	or     edx,ecx
 33d:	88 10                	mov    BYTE PTR [eax],dl
 33f:	8b 45 e4             	mov    eax,DWORD PTR [ebp-0x1c]
 342:	0f b6 10             	movzx  edx,BYTE PTR [eax]
 345:	83 e2 f7             	and    edx,0xfffffff7
 348:	88 10                	mov    BYTE PTR [eax],dl
 34a:	8b 45 e4             	mov    eax,DWORD PTR [ebp-0x1c]
 34d:	0f b6 10             	movzx  edx,BYTE PTR [eax]
 350:	83 e2 ef             	and    edx,0xffffffef
 353:	88 10                	mov    BYTE PTR [eax],dl
 355:	8b 45 e4             	mov    eax,DWORD PTR [ebp-0x1c]
 358:	0f b6 10             	movzx  edx,BYTE PTR [eax]
 35b:	83 e2 df             	and    edx,0xffffffdf
 35e:	88 10                	mov    BYTE PTR [eax],dl
 360:	8b 45 e4             	mov    eax,DWORD PTR [ebp-0x1c]
 363:	0f b6 10             	movzx  edx,BYTE PTR [eax]
 366:	83 e2 bf             	and    edx,0xffffffbf
 369:	88 10                	mov    BYTE PTR [eax],dl
 36b:	8b 45 e4             	mov    eax,DWORD PTR [ebp-0x1c]
 36e:	0f b6 10             	movzx  edx,BYTE PTR [eax]
 371:	83 e2 7f             	and    edx,0x7f
 374:	88 10                	mov    BYTE PTR [eax],dl
 376:	8b 45 e4             	mov    eax,DWORD PTR [ebp-0x1c]
 379:	0f b6 50 01          	movzx  edx,BYTE PTR [eax+0x1]
 37d:	83 e2 fe             	and    edx,0xfffffffe
 380:	88 50 01             	mov    BYTE PTR [eax+0x1],dl
 383:	8b 45 e4             	mov    eax,DWORD PTR [ebp-0x1c]
 386:	0f b6 50 01          	movzx  edx,BYTE PTR [eax+0x1]
 38a:	83 e2 f1             	and    edx,0xfffffff1
 38d:	88 50 01             	mov    BYTE PTR [eax+0x1],dl
 390:	8b 45 10             	mov    eax,DWORD PTR [ebp+0x10]
 393:	c1 e8 0c             	shr    eax,0xc
 396:	89 c2                	mov    edx,eax
 398:	81 e2 ff ff 0f 00    	and    edx,0xfffff
 39e:	8b 45 e4             	mov    eax,DWORD PTR [ebp-0x1c]
 3a1:	89 d1                	mov    ecx,edx
 3a3:	83 e1 0f             	and    ecx,0xf
 3a6:	89 cb                	mov    ebx,ecx
 3a8:	c1 e3 04             	shl    ebx,0x4
 3ab:	0f b6 48 01          	movzx  ecx,BYTE PTR [eax+0x1]
 3af:	83 e1 0f             	and    ecx,0xf
 3b2:	09 d9                	or     ecx,ebx
 3b4:	88 48 01             	mov    BYTE PTR [eax+0x1],cl
 3b7:	89 d1                	mov    ecx,edx
 3b9:	c1 e9 04             	shr    ecx,0x4
 3bc:	0f b6 d9             	movzx  ebx,cl
 3bf:	0f b6 48 02          	movzx  ecx,BYTE PTR [eax+0x2]
 3c3:	83 e1 00             	and    ecx,0x0
 3c6:	09 d9                	or     ecx,ebx
 3c8:	88 48 02             	mov    BYTE PTR [eax+0x2],cl
 3cb:	c1 ea 0c             	shr    edx,0xc
 3ce:	0f b6 ca             	movzx  ecx,dl
 3d1:	0f b6 50 03          	movzx  edx,BYTE PTR [eax+0x3]
 3d5:	83 e2 00             	and    edx,0x0
 3d8:	09 ca                	or     edx,ecx
 3da:	88 50 03             	mov    BYTE PTR [eax+0x3],dl
 3dd:	0f 20 db             	mov    ebx,cr3
 3e0:	89 5d dc             	mov    DWORD PTR [ebp-0x24],ebx
 3e3:	8b 45 dc             	mov    eax,DWORD PTR [ebp-0x24]
 3e6:	0f 22 d8             	mov    cr3,eax
 3e9:	83 c4 34             	add    esp,0x34
 3ec:	5b                   	pop    ebx
 3ed:	5d                   	pop    ebp
 3ee:	c3                   	ret    

000003ef <mmu_unmappear_pagina>:
 3ef:	55                   	push   ebp
 3f0:	89 e5                	mov    ebp,esp
 3f2:	53                   	push   ebx
 3f3:	83 ec 20             	sub    esp,0x20
 3f6:	8b 45 0c             	mov    eax,DWORD PTR [ebp+0xc]
 3f9:	c1 e8 0c             	shr    eax,0xc
 3fc:	89 45 f8             	mov    DWORD PTR [ebp-0x8],eax
 3ff:	c1 65 f8 0c          	shl    DWORD PTR [ebp-0x8],0xc
 403:	8b 45 f8             	mov    eax,DWORD PTR [ebp-0x8]
 406:	89 45 f4             	mov    DWORD PTR [ebp-0xc],eax
 409:	8b 45 08             	mov    eax,DWORD PTR [ebp+0x8]
 40c:	c1 e8 16             	shr    eax,0x16
 40f:	89 45 f0             	mov    DWORD PTR [ebp-0x10],eax
 412:	8b 45 f0             	mov    eax,DWORD PTR [ebp-0x10]
 415:	c1 e0 02             	shl    eax,0x2
 418:	01 45 f4             	add    DWORD PTR [ebp-0xc],eax
 41b:	8b 45 f4             	mov    eax,DWORD PTR [ebp-0xc]
 41e:	0f b6 50 01          	movzx  edx,BYTE PTR [eax+0x1]
 422:	c0 ea 04             	shr    dl,0x4
 425:	0f b6 d2             	movzx  edx,dl
 428:	0f b6 48 02          	movzx  ecx,BYTE PTR [eax+0x2]
 42c:	c1 e1 04             	shl    ecx,0x4
 42f:	09 ca                	or     edx,ecx
 431:	0f b6 40 03          	movzx  eax,BYTE PTR [eax+0x3]
 435:	c1 e0 0c             	shl    eax,0xc
 438:	09 d0                	or     eax,edx
 43a:	c1 e0 0c             	shl    eax,0xc
 43d:	89 45 ec             	mov    DWORD PTR [ebp-0x14],eax
 440:	8b 45 ec             	mov    eax,DWORD PTR [ebp-0x14]
 443:	89 45 e8             	mov    DWORD PTR [ebp-0x18],eax
 446:	8b 45 08             	mov    eax,DWORD PTR [ebp+0x8]
 449:	c1 e0 0a             	shl    eax,0xa
 44c:	89 45 e4             	mov    DWORD PTR [ebp-0x1c],eax
 44f:	c1 6d e4 16          	shr    DWORD PTR [ebp-0x1c],0x16
 453:	8b 45 e4             	mov    eax,DWORD PTR [ebp-0x1c]
 456:	c1 e0 02             	shl    eax,0x2
 459:	01 45 e8             	add    DWORD PTR [ebp-0x18],eax
 45c:	8b 45 e8             	mov    eax,DWORD PTR [ebp-0x18]
 45f:	0f b6 10             	movzx  edx,BYTE PTR [eax]
 462:	83 e2 fe             	and    edx,0xfffffffe
 465:	88 10                	mov    BYTE PTR [eax],dl
 467:	0f 20 db             	mov    ebx,cr3
 46a:	89 5d e0             	mov    DWORD PTR [ebp-0x20],ebx
 46d:	8b 45 e0             	mov    eax,DWORD PTR [ebp-0x20]
 470:	0f 22 d8             	mov    cr3,eax
 473:	83 c4 20             	add    esp,0x20
 476:	5b                   	pop    ebx
 477:	5d                   	pop    ebp
 478:	c3                   	ret    

00000479 <area_libre_mmu>:
 479:	55                   	push   ebp
 47a:	89 e5                	mov    ebp,esp
 47c:	83 ec 10             	sub    esp,0x10
 47f:	a1 00 00 00 00       	mov    eax,ds:0x0
 484:	89 45 fc             	mov    DWORD PTR [ebp-0x4],eax
 487:	a1 00 00 00 00       	mov    eax,ds:0x0
 48c:	05 00 40 00 00       	add    eax,0x4000
 491:	a3 00 00 00 00       	mov    ds:0x0,eax
 496:	8b 45 fc             	mov    eax,DWORD PTR [ebp-0x4]
 499:	c9                   	leave  
 49a:	c3                   	ret    

0000049b <set_mmu_entry>:
 49b:	55                   	push   ebp
 49c:	89 e5                	mov    ebp,esp
 49e:	53                   	push   ebx
 49f:	83 ec 0c             	sub    esp,0xc
 4a2:	8b 4d 10             	mov    ecx,DWORD PTR [ebp+0x10]
 4a5:	8b 55 18             	mov    edx,DWORD PTR [ebp+0x18]
 4a8:	8b 45 1c             	mov    eax,DWORD PTR [ebp+0x1c]
 4ab:	88 4d f8             	mov    BYTE PTR [ebp-0x8],cl
 4ae:	88 55 f4             	mov    BYTE PTR [ebp-0xc],dl
 4b1:	88 45 f0             	mov    BYTE PTR [ebp-0x10],al
 4b4:	8b 45 0c             	mov    eax,DWORD PTR [ebp+0xc]
 4b7:	c1 e0 02             	shl    eax,0x2
 4ba:	03 45 08             	add    eax,DWORD PTR [ebp+0x8]
 4bd:	0f b6 55 f8          	movzx  edx,BYTE PTR [ebp-0x8]
 4c1:	83 e2 01             	and    edx,0x1
 4c4:	89 d1                	mov    ecx,edx
 4c6:	83 e1 01             	and    ecx,0x1
 4c9:	0f b6 10             	movzx  edx,BYTE PTR [eax]
 4cc:	83 e2 fe             	and    edx,0xfffffffe
 4cf:	09 ca                	or     edx,ecx
 4d1:	88 10                	mov    BYTE PTR [eax],dl
 4d3:	8b 45 0c             	mov    eax,DWORD PTR [ebp+0xc]
 4d6:	c1 e0 02             	shl    eax,0x2
 4d9:	03 45 08             	add    eax,DWORD PTR [ebp+0x8]
 4dc:	8b 55 14             	mov    edx,DWORD PTR [ebp+0x14]
 4df:	81 e2 ff ff 0f 00    	and    edx,0xfffff
 4e5:	89 d1                	mov    ecx,edx
 4e7:	83 e1 0f             	and    ecx,0xf
 4ea:	89 cb                	mov    ebx,ecx
 4ec:	c1 e3 04             	shl    ebx,0x4
 4ef:	0f b6 48 01          	movzx  ecx,BYTE PTR [eax+0x1]
 4f3:	83 e1 0f             	and    ecx,0xf
 4f6:	09 d9                	or     ecx,ebx
 4f8:	88 48 01             	mov    BYTE PTR [eax+0x1],cl
 4fb:	89 d1                	mov    ecx,edx
 4fd:	c1 e9 04             	shr    ecx,0x4
 500:	0f b6 d9             	movzx  ebx,cl
 503:	0f b6 48 02          	movzx  ecx,BYTE PTR [eax+0x2]
 507:	83 e1 00             	and    ecx,0x0
 50a:	09 d9                	or     ecx,ebx
 50c:	88 48 02             	mov    BYTE PTR [eax+0x2],cl
 50f:	c1 ea 0c             	shr    edx,0xc
 512:	0f b6 ca             	movzx  ecx,dl
 515:	0f b6 50 03          	movzx  edx,BYTE PTR [eax+0x3]
 519:	83 e2 00             	and    edx,0x0
 51c:	09 ca                	or     edx,ecx
 51e:	88 50 03             	mov    BYTE PTR [eax+0x3],dl
 521:	8b 45 0c             	mov    eax,DWORD PTR [ebp+0xc]
 524:	c1 e0 02             	shl    eax,0x2
 527:	03 45 08             	add    eax,DWORD PTR [ebp+0x8]
 52a:	0f b6 55 f4          	movzx  edx,BYTE PTR [ebp-0xc]
 52e:	83 e2 01             	and    edx,0x1
 531:	83 e2 01             	and    edx,0x1
 534:	8d 0c 12             	lea    ecx,[edx+edx*1]
 537:	0f b6 10             	movzx  edx,BYTE PTR [eax]
 53a:	83 e2 fd             	and    edx,0xfffffffd
 53d:	09 ca                	or     edx,ecx
 53f:	88 10                	mov    BYTE PTR [eax],dl
 541:	8b 45 0c             	mov    eax,DWORD PTR [ebp+0xc]
 544:	c1 e0 02             	shl    eax,0x2
 547:	03 45 08             	add    eax,DWORD PTR [ebp+0x8]
 54a:	0f b6 55 f0          	movzx  edx,BYTE PTR [ebp-0x10]
 54e:	83 e2 01             	and    edx,0x1
 551:	83 e2 01             	and    edx,0x1
 554:	8d 0c 95 00 00 00 00 	lea    ecx,[edx*4+0x0]
 55b:	0f b6 10             	movzx  edx,BYTE PTR [eax]
 55e:	83 e2 fb             	and    edx,0xfffffffb
 561:	09 ca                	or     edx,ecx
 563:	88 10                	mov    BYTE PTR [eax],dl
 565:	8b 45 0c             	mov    eax,DWORD PTR [ebp+0xc]
 568:	c1 e0 02             	shl    eax,0x2
 56b:	03 45 08             	add    eax,DWORD PTR [ebp+0x8]
 56e:	0f b6 10             	movzx  edx,BYTE PTR [eax]
 571:	83 e2 f7             	and    edx,0xfffffff7
 574:	88 10                	mov    BYTE PTR [eax],dl
 576:	8b 45 0c             	mov    eax,DWORD PTR [ebp+0xc]
 579:	c1 e0 02             	shl    eax,0x2
 57c:	03 45 08             	add    eax,DWORD PTR [ebp+0x8]
 57f:	0f b6 10             	movzx  edx,BYTE PTR [eax]
 582:	83 e2 ef             	and    edx,0xffffffef
 585:	88 10                	mov    BYTE PTR [eax],dl
 587:	8b 45 0c             	mov    eax,DWORD PTR [ebp+0xc]
 58a:	c1 e0 02             	shl    eax,0x2
 58d:	03 45 08             	add    eax,DWORD PTR [ebp+0x8]
 590:	0f b6 10             	movzx  edx,BYTE PTR [eax]
 593:	83 e2 df             	and    edx,0xffffffdf
 596:	88 10                	mov    BYTE PTR [eax],dl
 598:	8b 45 0c             	mov    eax,DWORD PTR [ebp+0xc]
 59b:	c1 e0 02             	shl    eax,0x2
 59e:	03 45 08             	add    eax,DWORD PTR [ebp+0x8]
 5a1:	0f b6 10             	movzx  edx,BYTE PTR [eax]
 5a4:	83 e2 bf             	and    edx,0xffffffbf
 5a7:	88 10                	mov    BYTE PTR [eax],dl
 5a9:	8b 45 0c             	mov    eax,DWORD PTR [ebp+0xc]
 5ac:	c1 e0 02             	shl    eax,0x2
 5af:	03 45 08             	add    eax,DWORD PTR [ebp+0x8]
 5b2:	0f b6 10             	movzx  edx,BYTE PTR [eax]
 5b5:	83 e2 7f             	and    edx,0x7f
 5b8:	88 10                	mov    BYTE PTR [eax],dl
 5ba:	8b 45 0c             	mov    eax,DWORD PTR [ebp+0xc]
 5bd:	c1 e0 02             	shl    eax,0x2
 5c0:	03 45 08             	add    eax,DWORD PTR [ebp+0x8]
 5c3:	0f b6 50 01          	movzx  edx,BYTE PTR [eax+0x1]
 5c7:	83 e2 fe             	and    edx,0xfffffffe
 5ca:	88 50 01             	mov    BYTE PTR [eax+0x1],dl
 5cd:	8b 45 0c             	mov    eax,DWORD PTR [ebp+0xc]
 5d0:	c1 e0 02             	shl    eax,0x2
 5d3:	03 45 08             	add    eax,DWORD PTR [ebp+0x8]
 5d6:	0f b6 50 01          	movzx  edx,BYTE PTR [eax+0x1]
 5da:	83 e2 f1             	and    edx,0xfffffff1
 5dd:	88 50 01             	mov    BYTE PTR [eax+0x1],dl
 5e0:	83 c4 0c             	add    esp,0xc
 5e3:	5b                   	pop    ebx
 5e4:	5d                   	pop    ebp
 5e5:	c3                   	ret    

000005e6 <copiar_pagina_4k>:
 5e6:	55                   	push   ebp
 5e7:	89 e5                	mov    ebp,esp
 5e9:	83 ec 10             	sub    esp,0x10
 5ec:	c7 45 fc 00 00 00 00 	mov    DWORD PTR [ebp-0x4],0x0
 5f3:	eb 19                	jmp    60e <copiar_pagina_4k+0x28>
 5f5:	66 87 db             	xchg   bx,bx
 5f8:	8b 45 0c             	mov    eax,DWORD PTR [ebp+0xc]
 5fb:	8b 10                	mov    edx,DWORD PTR [eax]
 5fd:	8b 45 08             	mov    eax,DWORD PTR [ebp+0x8]
 600:	89 10                	mov    DWORD PTR [eax],edx
 602:	83 45 08 04          	add    DWORD PTR [ebp+0x8],0x4
 606:	83 45 0c 04          	add    DWORD PTR [ebp+0xc],0x4
 60a:	83 45 fc 01          	add    DWORD PTR [ebp-0x4],0x1
 60e:	81 7d fc ff 03 00 00 	cmp    DWORD PTR [ebp-0x4],0x3ff
 615:	7e de                	jle    5f5 <copiar_pagina_4k+0xf>
 617:	c9                   	leave  
 618:	c3                   	ret    

00000619 <primer_pos_libre>:
 619:	55                   	push   ebp
 61a:	89 e5                	mov    ebp,esp
 61c:	83 ec 10             	sub    esp,0x10
 61f:	c7 45 fc 00 00 00 00 	mov    DWORD PTR [ebp-0x4],0x0
 626:	eb 18                	jmp    640 <primer_pos_libre+0x27>
 628:	8b 45 fc             	mov    eax,DWORD PTR [ebp-0x4]
 62b:	c1 e0 02             	shl    eax,0x2
 62e:	03 45 08             	add    eax,DWORD PTR [ebp+0x8]
 631:	8b 00                	mov    eax,DWORD PTR [eax]
 633:	85 c0                	test   eax,eax
 635:	75 05                	jne    63c <primer_pos_libre+0x23>
 637:	8b 45 fc             	mov    eax,DWORD PTR [ebp-0x4]
 63a:	eb 0f                	jmp    64b <primer_pos_libre+0x32>
 63c:	83 45 fc 01          	add    DWORD PTR [ebp-0x4],0x1
 640:	83 7d fc 07          	cmp    DWORD PTR [ebp-0x4],0x7
 644:	7e e2                	jle    628 <primer_pos_libre+0xf>
 646:	b8 08 00 00 00       	mov    eax,0x8
 64b:	c9                   	leave  
 64c:	c3                   	ret    
